target datalayout = "e-m:e-p270:32:32-p271:32:32-p272:64:64-i64:64-i128:128-f80:128-n8:16:32:64-S128"
target triple = "x86_64-pc-linux-gnu"

%struct.AVDCT = type { ptr, ptr, [64 x i8], ptr, i32, i32, ptr, i32, ptr }
%struct.IDCTDSPContext = type { ptr, ptr, ptr, ptr, ptr, ptr, [64 x i8], i32, i32 }
%struct.FDCTDSPContext = type { ptr, ptr }
%struct.PixblockDSPContext = type { ptr, ptr, ptr, ptr }
%struct.AVCodecContext = type { ptr, i32, i32, ptr, i32, i32, ptr, ptr, ptr, i64, i32, i32, ptr, i32, %struct.AVRational, %struct.AVRational, %struct.AVRational, i32, i32, i32, i32, i32, %struct.AVRational, i32, i32, i32, i32, i32, i32, i32, i32, i32, i32, i32, ptr, ptr, i32, float, float, float, float, float, float, float, float, float, i32, i32, i32, i32, i32, i32, i32, i32, i32, i32, i32, i32, ptr, ptr, ptr, i32, i32, i32, i32, i32, i32, i32, i32, i32, i32, %struct.AVChannelLayout, i32, i32, i32, i32, i32, i32, i32, i32, ptr, i32, i32, i32, float, float, i32, i32, i32, i32, i32, ptr, i64, i64, float, float, i32, i32, ptr, ptr, i32, i32, i32, i32, i32, ptr, ptr, ptr, ptr, i32, i32, [8 x i64], i32, i32, i32, i32, i32, i32, i32, ptr, ptr, i32, i32, i32, i32, i32, i32, i32, i32, i32, i32, ptr, ptr, i32, i32, ptr, ptr, ptr, ptr, i32, i32, i64, i32, i32, i64, ptr, i64, ptr, i32, ptr, i32 }
%struct.AVRational = type { i32, i32 }
%struct.AVChannelLayout = type { i32, i32, %union.anon, ptr }
%union.anon = type { i64 }

; Function Attrs: nounwind uwtable
define i32 @avcodec_dct_init(ptr noundef %0) #0 {
  %2 = alloca i32, align 4
  %3 = alloca ptr, align 8
  %4 = alloca ptr, align 8
  %5 = alloca i32, align 4
  %6 = alloca %struct.IDCTDSPContext, align 8
  %7 = alloca %struct.FDCTDSPContext, align 8
  %8 = alloca %struct.PixblockDSPContext, align 8
  store ptr %0, ptr %3, align 8, !tbaa !4
  call void @llvm.lifetime.start.p0(i64 8, ptr %4) #5
  %9 = call ptr @avcodec_alloc_context3(ptr noundef null)
  store ptr %9, ptr %4, align 8, !tbaa !13
  %10 = load ptr, ptr %4, align 8, !tbaa !13
  %11 = icmp ne ptr %10, null
  br i1 %11, label %13, label %12

12:                                               ; preds = %1
  store i32 -12, ptr %2, align 4
  store i32 1, ptr %5, align 4
  br label %47

13:                                               ; preds = %1
  %14 = load ptr, ptr %3, align 8, !tbaa !4
  %15 = getelementptr inbounds nuw %struct.AVDCT, ptr %14, i32 0, i32 5
  %16 = load i32, ptr %15, align 4, !tbaa !15
  %17 = load ptr, ptr %4, align 8, !tbaa !13
  %18 = getelementptr inbounds nuw %struct.AVCodecContext, ptr %17, i32 0, i32 113
  store i32 %16, ptr %18, align 4, !tbaa !16
  %19 = load ptr, ptr %3, align 8, !tbaa !4
  %20 = getelementptr inbounds nuw %struct.AVDCT, ptr %19, i32 0, i32 4
  %21 = load i32, ptr %20, align 8, !tbaa !34
  %22 = load ptr, ptr %4, align 8, !tbaa !13
  %23 = getelementptr inbounds nuw %struct.AVCodecContext, ptr %22, i32 0, i32 112
  store i32 %21, ptr %23, align 8, !tbaa !35
  %24 = load ptr, ptr %3, align 8, !tbaa !4
  %25 = getelementptr inbounds nuw %struct.AVDCT, ptr %24, i32 0, i32 7
  %26 = load i32, ptr %25, align 8, !tbaa !36
  %27 = load ptr, ptr %4, align 8, !tbaa !13
  %28 = getelementptr inbounds nuw %struct.AVCodecContext, ptr %27, i32 0, i32 115
  store i32 %26, ptr %28, align 4, !tbaa !37
  call void @llvm.lifetime.start.p0(i64 120, ptr %6) #5
  call void @llvm.memset.p0.i64(ptr align 8 %6, i8 0, i64 120, i1 false)
  %29 = load ptr, ptr %4, align 8, !tbaa !13
  call void @ff_idctdsp_init(ptr noundef %6, ptr noundef %29)
  %30 = load ptr, ptr %3, align 8, !tbaa !4
  %31 = getelementptr inbounds nuw %struct.AVDCT, ptr %30, i32 0, i32 1
  %32 = getelementptr inbounds nuw %struct.IDCTDSPContext, ptr %6, i32 0, i32 3
  call void @llvm.memcpy.p0.p0.i64(ptr align 8 %31, ptr align 8 %32, i64 8, i1 false)
  %33 = load ptr, ptr %3, align 8, !tbaa !4
  %34 = getelementptr inbounds nuw %struct.AVDCT, ptr %33, i32 0, i32 2
  %35 = getelementptr inbounds nuw %struct.IDCTDSPContext, ptr %6, i32 0, i32 6
  call void @llvm.memcpy.p0.p0.i64(ptr align 8 %34, ptr align 8 %35, i64 64, i1 false)
  call void @llvm.lifetime.end.p0(i64 120, ptr %6) #5
  call void @llvm.lifetime.start.p0(i64 16, ptr %7) #5
  %36 = load ptr, ptr %4, align 8, !tbaa !13
  call void @ff_fdctdsp_init(ptr noundef %7, ptr noundef %36)
  %37 = load ptr, ptr %3, align 8, !tbaa !4
  %38 = getelementptr inbounds nuw %struct.AVDCT, ptr %37, i32 0, i32 3
  %39 = getelementptr inbounds nuw %struct.FDCTDSPContext, ptr %7, i32 0, i32 0
  call void @llvm.memcpy.p0.p0.i64(ptr align 8 %38, ptr align 8 %39, i64 8, i1 false)
  call void @llvm.lifetime.end.p0(i64 16, ptr %7) #5
  call void @llvm.lifetime.start.p0(i64 32, ptr %8) #5
  %40 = load ptr, ptr %4, align 8, !tbaa !13
  call void @ff_pixblockdsp_init(ptr noundef %8, ptr noundef %40)
  %41 = load ptr, ptr %3, align 8, !tbaa !4
  %42 = getelementptr inbounds nuw %struct.AVDCT, ptr %41, i32 0, i32 6
  %43 = getelementptr inbounds nuw %struct.PixblockDSPContext, ptr %8, i32 0, i32 0
  call void @llvm.memcpy.p0.p0.i64(ptr align 8 %42, ptr align 8 %43, i64 8, i1 false)
  %44 = load ptr, ptr %3, align 8, !tbaa !4
  %45 = getelementptr inbounds nuw %struct.AVDCT, ptr %44, i32 0, i32 8
  %46 = getelementptr inbounds nuw %struct.PixblockDSPContext, ptr %8, i32 0, i32 1
  call void @llvm.memcpy.p0.p0.i64(ptr align 8 %45, ptr align 8 %46, i64 8, i1 false)
  call void @llvm.lifetime.end.p0(i64 32, ptr %8) #5
  call void @avcodec_free_context(ptr noundef %4)
  store i32 0, ptr %2, align 4
  store i32 1, ptr %5, align 4
  br label %47

47:                                               ; preds = %13, %12
  call void @llvm.lifetime.end.p0(i64 8, ptr %4) #5
  %48 = load i32, ptr %2, align 4
  ret i32 %48
}