; Function Attrs: nounwind uwtable
define range(i32 -12, 1) i32 @avcodec_dct_init(ptr noundef captures(none) %0) local_unnamed_addr #1 {
  %2 = alloca ptr, align 8
  %3 = alloca %struct.IDCTDSPContext, align 8
  %4 = alloca %struct.FDCTDSPContext, align 8
  %5 = alloca %struct.PixblockDSPContext, align 8
  call void @llvm.lifetime.start.p0(i64 8, ptr nonnull %2) #6
  %6 = tail call ptr @avcodec_alloc_context3(ptr noundef null) #6
  store ptr %6, ptr %2, align 8, !tbaa !11
  %.not = icmp eq ptr %6, null
  br i1 %.not, label %29, label %7

7:                                                ; preds = %1
  %8 = getelementptr inbounds nuw i8, ptr %0, i64 92
  %9 = load i32, ptr %8, align 4, !tbaa !13
  %10 = getelementptr inbounds nuw i8, ptr %6, i64 644
  store i32 %9, ptr %10, align 4, !tbaa !14
  %11 = getelementptr inbounds nuw i8, ptr %0, i64 88
  %12 = load i32, ptr %11, align 8, !tbaa !32
  %13 = getelementptr inbounds nuw i8, ptr %6, i64 640
  store i32 %12, ptr %13, align 8, !tbaa !33
  %14 = getelementptr inbounds nuw i8, ptr %0, i64 104
  %15 = load i32, ptr %14, align 8, !tbaa !34
  %16 = getelementptr inbounds nuw i8, ptr %6, i64 652
  store i32 %15, ptr %16, align 4, !tbaa !35
  call void @llvm.lifetime.start.p0(i64 120, ptr nonnull %3) #6
  call void @llvm.memset.p0.i64(ptr noundef nonnull align 8 dereferenceable(120) %3, i8 0, i64 120, i1 false)
  call void @ff_idctdsp_init(ptr noundef nonnull %3, ptr noundef nonnull %6) #6
  %17 = getelementptr inbounds nuw i8, ptr %0, i64 8
  %18 = getelementptr inbounds nuw i8, ptr %3, i64 24
  %19 = load i64, ptr %18, align 8
  store i64 %19, ptr %17, align 8
  %20 = getelementptr inbounds nuw i8, ptr %0, i64 16
  %21 = getelementptr inbounds nuw i8, ptr %3, i64 48
  call void @llvm.memcpy.p0.p0.i64(ptr noundef nonnull align 8 dereferenceable(64) %20, ptr noundef nonnull align 8 dereferenceable(64) %21, i64 64, i1 false)
  call void @llvm.lifetime.end.p0(i64 120, ptr nonnull %3) #6
  call void @llvm.lifetime.start.p0(i64 16, ptr nonnull %4) #6
  call void @ff_fdctdsp_init(ptr noundef nonnull %4, ptr noundef nonnull %6) #6
  %22 = getelementptr inbounds nuw i8, ptr %0, i64 80
  %23 = load i64, ptr %4, align 8
  store i64 %23, ptr %22, align 8
  call void @llvm.lifetime.end.p0(i64 16, ptr nonnull %4) #6
  call void @llvm.lifetime.start.p0(i64 32, ptr nonnull %5) #6
  call void @ff_pixblockdsp_init(ptr noundef nonnull %5, ptr noundef nonnull %6) #6
  %24 = getelementptr inbounds nuw i8, ptr %0, i64 96
  %25 = load i64, ptr %5, align 8
  store i64 %25, ptr %24, align 8
  %26 = getelementptr inbounds nuw i8, ptr %0, i64 112
  %27 = getelementptr inbounds nuw i8, ptr %5, i64 8
  %28 = load i64, ptr %27, align 8
  store i64 %28, ptr %26, align 8
  call void @llvm.lifetime.end.p0(i64 32, ptr nonnull %5) #6
  call void @avcodec_free_context(ptr noundef nonnull %2) #6
  br label %29

29:                                               ; preds = %1, %7
  %.0 = phi i32 [ 0, %7 ], [ -12, %1 ]
  call void @llvm.lifetime.end.p0(i64 8, ptr nonnull %2) #6
  ret i32 %.0
}